target datalayout = "e-m:e-p270:32:32-p271:32:32-p272:64:64-i64:64-i128:128-f80:128-n8:16:32:64-S128"
target triple = "x86_64-pc-linux-gnu"

%struct.pg_regex_t = type { i32, i64, i64, i32, ptr, i32, ptr, ptr }
%struct.varattrib_1b = type { i8, [0 x i8] }
%struct.varattrib_1b_e = type { i8, i8, [0 x i8] }
%struct.anon = type { i32, [0 x i8] }
%struct.FunctionCallInfoBaseData = type { ptr, ptr, ptr, i32, i8, i16, [0 x %struct.NullableDatum] }
%struct.NullableDatum = type { i64, i8 }
%struct.pg_regmatch_t = type { i64, i64 }

; Function Attrs: inlinehint nounwind uwtable
define internal i64 @Int32GetDatum(i32 noundef %0) #6 {
  %2 = alloca i32, align 4
  store i32 %0, ptr %2, align 4
  %3 = load i32, ptr %2, align 4
  %4 = sext i32 %3 to i64
  ret i64 %4
}

; Function Attrs: inlinehint nounwind uwtable
define internal i64 @PointerGetDatum(ptr noundef %0) #6 {
  %2 = alloca ptr, align 8
  store ptr %0, ptr %2, align 8
  %3 = load ptr, ptr %2, align 8
  %4 = ptrtoint ptr %3 to i64
  ret i64 %4
}

; Function Attrs: nounwind uwtable
define internal zeroext i1 @RE_execute(ptr noundef %0, ptr noundef %1, i32 noundef %2, i32 noundef %3, ptr noundef %4) #0 {
  %6 = alloca ptr, align 8
  %7 = alloca ptr, align 8
  %8 = alloca i32, align 4
  %9 = alloca i32, align 4
  %10 = alloca ptr, align 8
  %11 = alloca ptr, align 8
  %12 = alloca i32, align 4
  %13 = alloca i8, align 1
  store ptr %0, ptr %6, align 8
  store ptr %1, ptr %7, align 8
  store i32 %2, ptr %8, align 4
  store i32 %3, ptr %9, align 4
  store ptr %4, ptr %10, align 8
  call void @llvm.lifetime.start.p0(i64 8, ptr %11) #8
  call void @llvm.lifetime.start.p0(i64 4, ptr %12) #8
  call void @llvm.lifetime.start.p0(i64 1, ptr %13) #8
  %14 = load i32, ptr %8, align 4
  %15 = add i32 %14, 1
  %16 = sext i32 %15 to i64
  %17 = mul i64 %16, 4
  %18 = call ptr @palloc(i64 noundef %17)
  store ptr %18, ptr %11, align 8
  %19 = load ptr, ptr %7, align 8
  %20 = load ptr, ptr %11, align 8
  %21 = load i32, ptr %8, align 4
  %22 = call i32 @pg_mb2wchar_with_len(ptr noundef %19, ptr noundef %20, i32 noundef %21)
  store i32 %22, ptr %12, align 4
  %23 = load ptr, ptr %6, align 8
  %24 = load ptr, ptr %11, align 8
  %25 = load i32, ptr %12, align 4
  %26 = load i32, ptr %9, align 4
  %27 = load ptr, ptr %10, align 8
  %28 = call zeroext i1 @RE_wchar_execute(ptr noundef %23, ptr noundef %24, i32 noundef %25, i32 noundef 0, i32 noundef %26, ptr noundef %27)
  %29 = zext i1 %28 to i8
  store i8 %29, ptr %13, align 1
  %30 = load ptr, ptr %11, align 8
  call void @pfree(ptr noundef %30)
  %31 = load i8, ptr %13, align 1, !range !6, !noundef !7
  %32 = trunc i8 %31 to i1
  call void @llvm.lifetime.end.p0(i64 1, ptr %13) #8
  call void @llvm.lifetime.end.p0(i64 4, ptr %12) #8
  call void @llvm.lifetime.end.p0(i64 8, ptr %11) #8
  ret i1 %32
}

; Function Attrs: inlinehint nounwind uwtable
define internal ptr @DatumGetPointer(i64 noundef %0) #6 {
  %2 = alloca i64, align 8
  store i64 %0, ptr %2, align 8
  %3 = load i64, ptr %2, align 8
  %4 = inttoptr i64 %3 to ptr
  ret ptr %4
}

; Function Attrs: nounwind uwtable
define dso_local i64 @textregexsubstr(ptr noundef %0) #0 {
  %2 = alloca i64, align 8
  %3 = alloca ptr, align 8
  %4 = alloca ptr, align 8
  %5 = alloca ptr, align 8
  %6 = alloca ptr, align 8
  %7 = alloca [2 x %struct.pg_regmatch_t], align 16
  %8 = alloca i32, align 4
  %9 = alloca i32, align 4
  %10 = alloca i32, align 4
  store ptr %0, ptr %3, align 8
  call void @llvm.lifetime.start.p0(i64 8, ptr %4) #8
  %11 = load ptr, ptr %3, align 8
  %12 = getelementptr inbounds nuw %struct.FunctionCallInfoBaseData, ptr %11, i32 0, i32 6
  %13 = getelementptr inbounds [0 x %struct.NullableDatum], ptr %12, i64 0, i64 0
  %14 = getelementptr inbounds nuw %struct.NullableDatum, ptr %13, i32 0, i32 0
  %15 = load i64, ptr %14, align 8
  %16 = call ptr @DatumGetPointer(i64 noundef %15)
  %17 = call ptr @pg_detoast_datum_packed(ptr noundef %16)
  store ptr %17, ptr %4, align 8
  call void @llvm.lifetime.start.p0(i64 8, ptr %5) #8
  %18 = load ptr, ptr %3, align 8
  %19 = getelementptr inbounds nuw %struct.FunctionCallInfoBaseData, ptr %18, i32 0, i32 6
  %20 = getelementptr inbounds [0 x %struct.NullableDatum], ptr %19, i64 0, i64 1
  %21 = getelementptr inbounds nuw %struct.NullableDatum, ptr %20, i32 0, i32 0
  %22 = load i64, ptr %21, align 8
  %23 = call ptr @DatumGetPointer(i64 noundef %22)
  %24 = call ptr @pg_detoast_datum_packed(ptr noundef %23)
  store ptr %24, ptr %5, align 8
  call void @llvm.lifetime.start.p0(i64 8, ptr %6) #8
  call void @llvm.lifetime.start.p0(i64 32, ptr %7) #8
  call void @llvm.lifetime.start.p0(i64 4, ptr %8) #8
  call void @llvm.lifetime.start.p0(i64 4, ptr %9) #8
  %25 = load ptr, ptr %5, align 8
  %26 = load ptr, ptr %3, align 8
  %27 = getelementptr inbounds nuw %struct.FunctionCallInfoBaseData, ptr %26, i32 0, i32 3
  %28 = load i32, ptr %27, align 8
  %29 = call ptr @RE_compile_and_cache(ptr noundef %25, i32 noundef 3, i32 noundef %28)
  store ptr %29, ptr %6, align 8
  %30 = load ptr, ptr %6, align 8
  %31 = load ptr, ptr %4, align 8
  %32 = getelementptr inbounds nuw %struct.varattrib_1b, ptr %31, i32 0, i32 0
  %33 = load i8, ptr %32, align 1
  %34 = zext i8 %33 to i32
  %35 = and i32 %34, 1
  %36 = icmp eq i32 %35, 1
  br i1 %36, label %37, label %41

37:                                               ; preds = %1
  %38 = load ptr, ptr %4, align 8
  %39 = getelementptr inbounds nuw %struct.varattrib_1b, ptr %38, i32 0, i32 1
  %40 = getelementptr inbounds [0 x i8], ptr %39, i64 0, i64 0
  br label %45

41:                                               ; preds = %1
  %42 = load ptr, ptr %4, align 8
  %43 = getelementptr inbounds nuw %struct.anon, ptr %42, i32 0, i32 1
  %44 = getelementptr inbounds [0 x i8], ptr %43, i64 0, i64 0
  br label %45

45:                                               ; preds = %41, %37
  %46 = phi ptr [ %40, %37 ], [ %44, %41 ]
  %47 = load ptr, ptr %4, align 8
  %48 = getelementptr inbounds nuw %struct.varattrib_1b, ptr %47, i32 0, i32 0
  %49 = load i8, ptr %48, align 1
  %50 = zext i8 %49 to i32
  %51 = icmp eq i32 %50, 1
  br i1 %51, label %52, label %80

52:                                               ; preds = %45
  %53 = load ptr, ptr %4, align 8
  %54 = getelementptr inbounds nuw %struct.varattrib_1b_e, ptr %53, i32 0, i32 1
  %55 = load i8, ptr %54, align 1
  %56 = zext i8 %55 to i32
  %57 = icmp eq i32 %56, 1
  br i1 %57, label %58, label %59

58:                                               ; preds = %52
  br label %76

59:                                               ; preds = %52
  %60 = load ptr, ptr %4, align 8
  %61 = getelementptr inbounds nuw %struct.varattrib_1b_e, ptr %60, i32 0, i32 1
  %62 = load i8, ptr %61, align 1
  %63 = zext i8 %62 to i32
  %64 = and i32 %63, -2
  %65 = icmp eq i32 %64, 2
  br i1 %65, label %66, label %67

66:                                               ; preds = %59
  br label %74

67:                                               ; preds = %59
  %68 = load ptr, ptr %4, align 8
  %69 = getelementptr inbounds nuw %struct.varattrib_1b_e, ptr %68, i32 0, i32 1
  %70 = load i8, ptr %69, align 1
  %71 = zext i8 %70 to i32
  %72 = icmp eq i32 %71, 18
  %73 = select i1 %72, i64 16, i64 0
  br label %74

74:                                               ; preds = %67, %66
  %75 = phi i64 [ 8, %66 ], [ %73, %67 ]
  br label %76

76:                                               ; preds = %74, %58
  %77 = phi i64 [ 8, %58 ], [ %75, %74 ]
  %78 = add i64 2, %77
  %79 = sub i64 %78, 2
  br label %106

80:                                               ; preds = %45
  %81 = load ptr, ptr %4, align 8
  %82 = getelementptr inbounds nuw %struct.varattrib_1b, ptr %81, i32 0, i32 0
  %83 = load i8, ptr %82, align 1
  %84 = zext i8 %83 to i32
  %85 = and i32 %84, 1
  %86 = icmp eq i32 %85, 1
  br i1 %86, label %87, label %96

87:                                               ; preds = %80
  %88 = load ptr, ptr %4, align 8
  %89 = getelementptr inbounds nuw %struct.varattrib_1b, ptr %88, i32 0, i32 0
  %90 = load i8, ptr %89, align 1
  %91 = zext i8 %90 to i32
  %92 = ashr i32 %91, 1
  %93 = and i32 %92, 127
  %94 = sext i32 %93 to i64
  %95 = sub i64 %94, 1
  br label %104

96:                                               ; preds = %80
  %97 = load ptr, ptr %4, align 8
  %98 = getelementptr inbounds nuw %struct.anon, ptr %97, i32 0, i32 0
  %99 = load i32, ptr %98, align 4
  %100 = lshr i32 %99, 2
  %101 = and i32 %100, 1073741823
  %102 = sub i32 %101, 4
  %103 = zext i32 %102 to i64
  br label %104

104:                                              ; preds = %96, %87
  %105 = phi i64 [ %95, %87 ], [ %103, %96 ]
  br label %106

106:                                              ; preds = %104, %76
  %107 = phi i64 [ %79, %76 ], [ %105, %104 ]
  %108 = trunc i64 %107 to i32
  %109 = getelementptr inbounds [2 x %struct.pg_regmatch_t], ptr %7, i64 0, i64 0
  %110 = call zeroext i1 @RE_execute(ptr noundef %30, ptr noundef %46, i32 noundef %108, i32 noundef 2, ptr noundef %109)
  br i1 %110, label %117, label %111

111:                                              ; preds = %106
  br label %112

112:                                              ; preds = %111
  %113 = load ptr, ptr %3, align 8
  %114 = getelementptr inbounds nuw %struct.FunctionCallInfoBaseData, ptr %113, i32 0, i32 4
  store i8 1, ptr %114, align 4
  store i64 0, ptr %2, align 8
  store i32 1, ptr %10, align 4
  br label %163

115:                                              ; No predecessors!
  br label %116

116:                                              ; preds = %115
  br label %117

117:                                              ; preds = %116, %106
  %118 = load ptr, ptr %6, align 8
  %119 = getelementptr inbounds nuw %struct.pg_regex_t, ptr %118, i32 0, i32 1
  %120 = load i64, ptr %119, align 8
  %121 = icmp ugt i64 %120, 0
  br i1 %121, label %122, label %131

122:                                              ; preds = %117
  %123 = getelementptr inbounds [2 x %struct.pg_regmatch_t], ptr %7, i64 0, i64 1
  %124 = getelementptr inbounds nuw %struct.pg_regmatch_t, ptr %123, i32 0, i32 0
  %125 = load i64, ptr %124, align 16
  %126 = trunc i64 %125 to i32
  store i32 %126, ptr %8, align 4
  %127 = getelementptr inbounds [2 x %struct.pg_regmatch_t], ptr %7, i64 0, i64 1
  %128 = getelementptr inbounds nuw %struct.pg_regmatch_t, ptr %127, i32 0, i32 1
  %129 = load i64, ptr %128, align 8
  %130 = trunc i64 %129 to i32
  store i32 %130, ptr %9, align 4
  br label %140

131:                                              ; preds = %117
  %132 = getelementptr inbounds [2 x %struct.pg_regmatch_t], ptr %7, i64 0, i64 0
  %133 = getelementptr inbounds nuw %struct.pg_regmatch_t, ptr %132, i32 0, i32 0
  %134 = load i64, ptr %133, align 16
  %135 = trunc i64 %134 to i32
  store i32 %135, ptr %8, align 4
  %136 = getelementptr inbounds [2 x %struct.pg_regmatch_t], ptr %7, i64 0, i64 0
  %137 = getelementptr inbounds nuw %struct.pg_regmatch_t, ptr %136, i32 0, i32 1
  %138 = load i64, ptr %137, align 8
  %139 = trunc i64 %138 to i32
  store i32 %139, ptr %9, align 4
  br label %140

140:                                              ; preds = %131, %122
  %141 = load i32, ptr %8, align 4
  %142 = icmp slt i32 %141, 0
  br i1 %142, label %146, label %143

143:                                              ; preds = %140
  %144 = load i32, ptr %9, align 4
  %145 = icmp slt i32 %144, 0
  br i1 %145, label %146, label %152

146:                                              ; preds = %143, %140
  br label %147

147:                                              ; preds = %146
  %148 = load ptr, ptr %3, align 8
  %149 = getelementptr inbounds nuw %struct.FunctionCallInfoBaseData, ptr %148, i32 0, i32 4
  store i8 1, ptr %149, align 4
  store i64 0, ptr %2, align 8
  store i32 1, ptr %10, align 4
  br label %163

150:                                              ; No predecessors!
  br label %151

151:                                              ; preds = %150
  br label %152

152:                                              ; preds = %151, %143
  %153 = load ptr, ptr %4, align 8
  %154 = call i64 @PointerGetDatum(ptr noundef %153)
  %155 = load i32, ptr %8, align 4
  %156 = add i32 %155, 1
  %157 = call i64 @Int32GetDatum(i32 noundef %156)
  %158 = load i32, ptr %9, align 4
  %159 = load i32, ptr %8, align 4
  %160 = sub i32 %158, %159
  %161 = call i64 @Int32GetDatum(i32 noundef %160)
  %162 = call i64 @DirectFunctionCall3Coll(ptr noundef @text_substr, i32 noundef 0, i64 noundef %154, i64 noundef %157, i64 noundef %161)
  store i64 %162, ptr %2, align 8
  store i32 1, ptr %10, align 4
  br label %163

163:                                              ; preds = %152, %147, %112
  call void @llvm.lifetime.end.p0(i64 4, ptr %9) #8
  call void @llvm.lifetime.end.p0(i64 4, ptr %8) #8
  call void @llvm.lifetime.end.p0(i64 32, ptr %7) #8
  call void @llvm.lifetime.end.p0(i64 8, ptr %6) #8
  call void @llvm.lifetime.end.p0(i64 8, ptr %5) #8
  call void @llvm.lifetime.end.p0(i64 8, ptr %4) #8
  %164 = load i64, ptr %2, align 8
  ret i64 %164
}