; Function Attrs: nounwind uwtable
define dso_local i64 @textregexsubstr(ptr noundef captures(none) %0) local_unnamed_addr #0 {
  %2 = alloca [2 x %struct.pg_regmatch_t], align 16
  %3 = getelementptr inbounds nuw i8, ptr %0, i64 32
  %4 = load i64, ptr %3, align 8
  %5 = inttoptr i64 %4 to ptr
  %6 = tail call ptr @pg_detoast_datum_packed(ptr noundef %5) #9
  %7 = getelementptr inbounds nuw i8, ptr %0, i64 48
  %8 = load i64, ptr %7, align 8
  %9 = inttoptr i64 %8 to ptr
  %10 = tail call ptr @pg_detoast_datum_packed(ptr noundef %9) #9
  call void @llvm.lifetime.start.p0(i64 32, ptr nonnull %2) #9
  %11 = getelementptr inbounds nuw i8, ptr %0, i64 24
  %12 = load i32, ptr %11, align 8
  %13 = tail call ptr @RE_compile_and_cache(ptr noundef %10, i32 noundef 3, i32 noundef %12)
  %14 = load i8, ptr %6, align 1
  %15 = zext i8 %14 to i32
  %16 = and i32 %15, 1
  %.not = icmp eq i32 %16, 0
  %17 = getelementptr inbounds nuw i8, ptr %6, i64 1
  %18 = getelementptr inbounds nuw i8, ptr %6, i64 4
  %19 = select i1 %.not, ptr %18, ptr %17
  %20 = icmp eq i8 %14, 1
  br i1 %20, label %21, label %29

21:                                               ; preds = %1
  %22 = load i8, ptr %17, align 1
  %23 = icmp eq i8 %22, 1
  %24 = and i8 %22, -2
  %25 = icmp eq i8 %24, 2
  %or.cond31 = or i1 %23, %25
  %26 = icmp eq i8 %22, 18
  %27 = select i1 %26, i32 16, i32 0
  %28 = select i1 %or.cond31, i32 8, i32 %27
  br label %37

29:                                               ; preds = %1
  br i1 %.not, label %33, label %30

30:                                               ; preds = %29
  %31 = lshr i32 %15, 1
  %32 = add nsw i32 %31, -1
  br label %37

33:                                               ; preds = %29
  %34 = load i32, ptr %6, align 4
  %35 = lshr i32 %34, 2
  %36 = add nsw i32 %35, -4
  br label %37

37:                                               ; preds = %30, %33, %21
  %38 = phi i32 [ %28, %21 ], [ %32, %30 ], [ %36, %33 ]
  %39 = add nsw i32 %38, 1
  %40 = sext i32 %39 to i64
  %41 = shl nsw i64 %40, 2
  %42 = tail call ptr @palloc(i64 noundef %41) #9
  %43 = tail call i32 @pg_mb2wchar_with_len(ptr noundef nonnull %19, ptr noundef %42, i32 noundef %38) #9
  %44 = call fastcc zeroext i1 @RE_wchar_execute(ptr noundef %42, i32 noundef %43, i32 noundef 0, i32 noundef 2, ptr noundef nonnull %2)
  call void @pfree(ptr noundef %42) #9
  br i1 %44, label %47, label %45

45:                                               ; preds = %37
  %46 = getelementptr inbounds nuw i8, ptr %0, i64 28
  store i8 1, ptr %46, align 4
  br label %69

47:                                               ; preds = %37
  %48 = load i64, ptr getelementptr inbounds nuw (i8, ptr @re_array, i64 40), align 8
  %.not29 = icmp eq i64 %48, 0
  %49 = getelementptr inbounds nuw i8, ptr %2, i64 16
  %50 = load i64, ptr %49, align 16
  %51 = getelementptr inbounds nuw i8, ptr %2, i64 24
  %52 = load i64, ptr %51, align 8
  %53 = load i64, ptr %2, align 16
  %54 = getelementptr inbounds nuw i8, ptr %2, i64 8
  %55 = load i64, ptr %54, align 8
  %.025.in = select i1 %.not29, i64 %53, i64 %50
  %.0.in = select i1 %.not29, i64 %55, i64 %52
  %56 = and i64 %.025.in, 2147483648
  %57 = icmp ne i64 %56, 0
  %58 = and i64 %.0.in, 2147483648
  %59 = icmp ne i64 %58, 0
  %or.cond = select i1 %57, i1 true, i1 %59
  br i1 %or.cond, label %60, label %62

60:                                               ; preds = %47
  %61 = getelementptr inbounds nuw i8, ptr %0, i64 28
  store i8 1, ptr %61, align 4
  br label %69

62:                                               ; preds = %47
  %63 = ptrtoint ptr %6 to i64
  %64 = shl i64 %.025.in, 32
  %sext = add nuw i64 %64, 4294967296
  %65 = ashr exact i64 %sext, 32
  %66 = sub i64 %.0.in, %.025.in
  %sext32 = shl i64 %66, 32
  %67 = ashr exact i64 %sext32, 32
  %68 = call i64 @DirectFunctionCall3Coll(ptr noundef nonnull @text_substr, i32 noundef 0, i64 noundef %63, i64 noundef %65, i64 noundef %67) #9
  br label %69

69:                                               ; preds = %62, %60, %45
  %.026 = phi i64 [ 0, %60 ], [ %68, %62 ], [ 0, %45 ]
  call void @llvm.lifetime.end.p0(i64 32, ptr nonnull %2) #9
  ret i64 %.026
}